target datalayout = "e-m:e-p270:32:32-p271:32:32-p272:64:64-i64:64-i128:128-f80:128-n8:16:32:64-S128"
target triple = "x86_64-pc-linux-gnu"

%struct.H5O_copy_search_comm_dt_key_t = type { ptr, i64 }

@H5O_init_g = external global i8, align 1
@H5_libterm_g = external global i8, align 1

; Function Attrs: nounwind uwtable
define internal i32 @H5O__copy_comm_dt_cmp(ptr noundef %0, ptr noundef %1) #0 {
  %3 = alloca ptr, align 8
  %4 = alloca ptr, align 8
  %5 = alloca ptr, align 8
  %6 = alloca ptr, align 8
  %7 = alloca i32, align 4
  store ptr %0, ptr %3, align 8, !tbaa !30
  store ptr %1, ptr %4, align 8, !tbaa !30
  call void @llvm.lifetime.start.p0(i64 8, ptr %5) #8
  %8 = load ptr, ptr %3, align 8, !tbaa !30
  store ptr %8, ptr %5, align 8, !tbaa !136
  call void @llvm.lifetime.start.p0(i64 8, ptr %6) #8
  %9 = load ptr, ptr %4, align 8, !tbaa !30
  store ptr %9, ptr %6, align 8, !tbaa !136
  call void @llvm.lifetime.start.p0(i64 4, ptr %7) #8
  store i32 0, ptr %7, align 4, !tbaa !14
  %10 = load i8, ptr @H5O_init_g, align 1, !tbaa !12, !range !16, !noundef !17
  %11 = trunc i8 %10 to i1
  br i1 %11, label %16, label %12

12:                                               ; preds = %2
  %13 = load i8, ptr @H5_libterm_g, align 1, !tbaa !12, !range !16, !noundef !17
  %14 = trunc i8 %13 to i1
  %15 = xor i1 %14, true
  br label %16

16:                                               ; preds = %12, %2
  %17 = phi i1 [ true, %2 ], [ %15, %12 ]
  %18 = xor i1 %17, true
  %19 = xor i1 %18, true
  %20 = zext i1 %19 to i32
  %21 = sext i32 %20 to i64
  %22 = call i64 @llvm.expect.i64(i64 %21, i64 1)
  %23 = icmp ne i64 %22, 0
  br i1 %23, label %24, label %66

24:                                               ; preds = %16
  %25 = load ptr, ptr %5, align 8, !tbaa !136
  %26 = getelementptr inbounds nuw %struct.H5O_copy_search_comm_dt_key_t, ptr %25, i32 0, i32 1
  %27 = load i64, ptr %26, align 8, !tbaa !157
  %28 = load ptr, ptr %6, align 8, !tbaa !136
  %29 = getelementptr inbounds nuw %struct.H5O_copy_search_comm_dt_key_t, ptr %28, i32 0, i32 1
  %30 = load i64, ptr %29, align 8, !tbaa !157
  %31 = icmp ne i64 %27, %30
  br i1 %31, label %32, label %57

32:                                               ; preds = %24
  %33 = load ptr, ptr %5, align 8, !tbaa !136
  %34 = getelementptr inbounds nuw %struct.H5O_copy_search_comm_dt_key_t, ptr %33, i32 0, i32 1
  %35 = load i64, ptr %34, align 8, !tbaa !157
  %36 = load ptr, ptr %6, align 8, !tbaa !136
  %37 = getelementptr inbounds nuw %struct.H5O_copy_search_comm_dt_key_t, ptr %36, i32 0, i32 1
  %38 = load i64, ptr %37, align 8, !tbaa !157
  %39 = icmp ult i64 %35, %38
  br i1 %39, label %40, label %44

40:                                               ; preds = %32
  br label %41

41:                                               ; preds = %40
  store i32 -1, ptr %7, align 4, !tbaa !14
  br label %65

42:                                               ; No predecessors!
  br label %43

43:                                               ; preds = %42
  br label %44

44:                                               ; preds = %43, %32
  %45 = load ptr, ptr %5, align 8, !tbaa !136
  %46 = getelementptr inbounds nuw %struct.H5O_copy_search_comm_dt_key_t, ptr %45, i32 0, i32 1
  %47 = load i64, ptr %46, align 8, !tbaa !157
  %48 = load ptr, ptr %6, align 8, !tbaa !136
  %49 = getelementptr inbounds nuw %struct.H5O_copy_search_comm_dt_key_t, ptr %48, i32 0, i32 1
  %50 = load i64, ptr %49, align 8, !tbaa !157
  %51 = icmp ugt i64 %47, %50
  br i1 %51, label %52, label %56

52:                                               ; preds = %44
  br label %53

53:                                               ; preds = %52
  store i32 1, ptr %7, align 4, !tbaa !14
  br label %65

54:                                               ; No predecessors!
  br label %55

55:                                               ; preds = %54
  br label %56

56:                                               ; preds = %55, %44
  br label %57

57:                                               ; preds = %56, %24
  %58 = load ptr, ptr %5, align 8, !tbaa !136
  %59 = getelementptr inbounds nuw %struct.H5O_copy_search_comm_dt_key_t, ptr %58, i32 0, i32 0
  %60 = load ptr, ptr %59, align 8, !tbaa !138
  %61 = load ptr, ptr %6, align 8, !tbaa !136
  %62 = getelementptr inbounds nuw %struct.H5O_copy_search_comm_dt_key_t, ptr %61, i32 0, i32 0
  %63 = load ptr, ptr %62, align 8, !tbaa !138
  %64 = call i32 @H5T_cmp(ptr noundef %60, ptr noundef %63, i1 noundef zeroext false)
  store i32 %64, ptr %7, align 4, !tbaa !14
  br label %65

65:                                               ; preds = %57, %53, %41
  br label %66

66:                                               ; preds = %65, %16
  %67 = load i32, ptr %7, align 4, !tbaa !14
  call void @llvm.lifetime.end.p0(i64 4, ptr %7) #8
  call void @llvm.lifetime.end.p0(i64 8, ptr %6) #8
  call void @llvm.lifetime.end.p0(i64 8, ptr %5) #8
  ret i32 %67
}