; Function Attrs: nounwind uwtable
define internal i32 @H5O__copy_comm_dt_cmp(ptr noundef readonly captures(none) %0, ptr noundef readonly captures(none) %1) #0 {
  %3 = load i8, ptr @H5O_init_g, align 1, !tbaa !3, !range !7, !noundef !8
  %4 = trunc nuw i8 %3 to i1
  %5 = load i8, ptr @H5_libterm_g, align 1, !range !7
  %6 = trunc nuw i8 %5 to i1
  %7 = xor i1 %6, true
  %8 = select i1 %4, i1 true, i1 %7
  br i1 %8, label %9, label %22, !prof !9

9:                                                ; preds = %2
  %10 = getelementptr inbounds nuw i8, ptr %0, i64 8
  %11 = load i64, ptr %10, align 8, !tbaa !151
  %12 = getelementptr inbounds nuw i8, ptr %1, i64 8
  %13 = load i64, ptr %12, align 8, !tbaa !151
  %.not = icmp eq i64 %11, %13
  br i1 %.not, label %18, label %14

14:                                               ; preds = %9
  %15 = icmp ult i64 %11, %13
  br i1 %15, label %22, label %16

16:                                               ; preds = %14
  %17 = icmp ugt i64 %11, %13
  br i1 %17, label %22, label %18

18:                                               ; preds = %16, %9
  %19 = load ptr, ptr %0, align 8, !tbaa !62
  %20 = load ptr, ptr %1, align 8, !tbaa !62
  %21 = tail call i32 @H5T_cmp(ptr noundef %19, ptr noundef %20, i1 noundef zeroext false) #7
  br label %22

22:                                               ; preds = %16, %14, %18, %2
  %.0 = phi i32 [ %21, %18 ], [ 0, %2 ], [ -1, %14 ], [ 1, %16 ]
  ret i32 %.0
}